; Function Attrs: mustprogress uwtable
define hidden noundef ptr @_Z39pj_projection_specific_setup_bertin1953P8PJconsts(ptr noundef %0) local_unnamed_addr #0 {
  %2 = tail call noalias dereferenceable_or_null(40) ptr @calloc(i64 noundef 1, i64 noundef 40) #5
  %3 = icmp eq ptr %2, null
  br i1 %3, label %4, label %6

4:                                                ; preds = %1
  %5 = tail call noundef ptr @_Z21pj_default_destructorP8PJconstsi(ptr noundef %0, i32 noundef 4096)
  br label %14

6:                                                ; preds = %1
  %7 = getelementptr inbounds nuw i8, ptr %0, i64 88
  store ptr %2, ptr %7, align 8, !tbaa !3
  %8 = getelementptr inbounds nuw i8, ptr %0, i64 440
  store double 0.000000e+00, ptr %8, align 8, !tbaa !36
  %9 = getelementptr inbounds nuw i8, ptr %0, i64 448
  store double 0xBFE7750CB50C6E5B, ptr %9, align 8, !tbaa !37
  store double 0x3FE7C7D7A833BEC2, ptr %2, align 8, !tbaa !38
  %10 = getelementptr inbounds nuw i8, ptr %2, i64 8
  store double 0xBFE5698496E20BD8, ptr %10, align 8, !tbaa !40
  %11 = getelementptr inbounds nuw i8, ptr %2, i64 16
  store double 1.000000e+00, ptr %11, align 8, !tbaa !41
  %12 = getelementptr inbounds nuw i8, ptr %0, i64 216
  store double 0.000000e+00, ptr %12, align 8, !tbaa !42
  %13 = getelementptr inbounds nuw i8, ptr %0, i64 104
  store ptr @_ZL20bertin1953_s_forward5PJ_LPP8PJconsts, ptr %13, align 8, !tbaa !43
  br label %14

14:                                               ; preds = %6, %4
  %.0 = phi ptr [ %5, %4 ], [ %0, %6 ]
  ret ptr %.0
}